target datalayout = "e-m:e-p270:32:32-p271:32:32-p272:64:64-i64:64-i128:128-f80:128-n8:16:32:64-S128"
target triple = "x86_64-pc-linux-gnu"

%struct.WalSummaryFile = type { i64, i64, i32 }

@.str.2 = private unnamed_addr constant [46 x i8] c"pg_wal/summaries/%08X%08X%08X%08X%08X.summary\00", align 1
@.str.3 = private unnamed_addr constant [29 x i8] c"could not open file \22%s\22: %m\00", align 1
@.str.4 = private unnamed_addr constant [13 x i8] c"walsummary.c\00", align 1
@__func__.OpenWalSummaryFile = private unnamed_addr constant [19 x i8] c"OpenWalSummaryFile\00", align 1

; Function Attrs: nounwind uwtable
define dso_local i32 @OpenWalSummaryFile(ptr noundef %0, i1 noundef zeroext %1) #0 {
  %3 = alloca ptr, align 8
  %4 = alloca i8, align 1
  %5 = alloca [1024 x i8], align 16
  %6 = alloca i32, align 4
  %7 = alloca i32, align 4
  %8 = alloca i32, align 4
  store ptr %0, ptr %3, align 8
  %9 = zext i1 %1 to i8
  store i8 %9, ptr %4, align 1
  call void @llvm.lifetime.start.p0(i64 1024, ptr %5) #10
  call void @llvm.lifetime.start.p0(i64 4, ptr %6) #10
  %10 = getelementptr inbounds [1024 x i8], ptr %5, i64 0, i64 0
  %11 = load ptr, ptr %3, align 8
  %12 = getelementptr inbounds nuw %struct.WalSummaryFile, ptr %11, i32 0, i32 2
  %13 = load i32, ptr %12, align 8
  br label %14

14:                                               ; preds = %2
  br label %15

15:                                               ; preds = %14
  br label %16

16:                                               ; preds = %15
  store i32 1, ptr %7, align 4
  %17 = load ptr, ptr %3, align 8
  %18 = getelementptr inbounds nuw %struct.WalSummaryFile, ptr %17, i32 0, i32 0
  %19 = load i64, ptr %18, align 8
  %20 = lshr i64 %19, 32
  %21 = trunc i64 %20 to i32
  %22 = load ptr, ptr %3, align 8
  %23 = getelementptr inbounds nuw %struct.WalSummaryFile, ptr %22, i32 0, i32 0
  %24 = load i64, ptr %23, align 8
  %25 = trunc i64 %24 to i32
  br label %26

26:                                               ; preds = %16
  br label %27

27:                                               ; preds = %26
  br label %28

28:                                               ; preds = %27
  store i32 1, ptr %8, align 4
  %29 = load ptr, ptr %3, align 8
  %30 = getelementptr inbounds nuw %struct.WalSummaryFile, ptr %29, i32 0, i32 1
  %31 = load i64, ptr %30, align 8
  %32 = lshr i64 %31, 32
  %33 = trunc i64 %32 to i32
  %34 = load ptr, ptr %3, align 8
  %35 = getelementptr inbounds nuw %struct.WalSummaryFile, ptr %34, i32 0, i32 1
  %36 = load i64, ptr %35, align 8
  %37 = trunc i64 %36 to i32
  %38 = call i32 (ptr, i64, ptr, ...) @pg_snprintf(ptr noundef %10, i64 noundef 1024, ptr noundef @.str.2, i32 noundef %13, i32 noundef %21, i32 noundef %25, i32 noundef %33, i32 noundef %37)
  %39 = getelementptr inbounds [1024 x i8], ptr %5, i64 0, i64 0
  %40 = call i32 @PathNameOpenFile(ptr noundef %39, i32 noundef 0)
  store i32 %40, ptr %6, align 4
  %41 = load i32, ptr %6, align 4
  %42 = icmp slt i32 %41, 0
  br i1 %42, label %43, label %63

43:                                               ; preds = %28
  %44 = call ptr @__errno_location() #12
  %45 = load i32, ptr %44, align 4
  %46 = icmp ne i32 %45, 17
  br i1 %46, label %50, label %47

47:                                               ; preds = %43
  %48 = load i8, ptr %4, align 1, !range !8, !noundef !9
  %49 = trunc i8 %48 to i1
  br i1 %49, label %63, label %50

50:                                               ; preds = %47, %43
  br label %51

51:                                               ; preds = %50
  br i1 true, label %52, label %54

52:                                               ; preds = %51
  %53 = call zeroext i1 @errstart_cold(i32 noundef 21, ptr noundef null) #13
  br i1 %53, label %56, label %60

54:                                               ; preds = %51
  %55 = call zeroext i1 @errstart(i32 noundef 21, ptr noundef null)
  br i1 %55, label %56, label %60

56:                                               ; preds = %54, %52
  %57 = call i32 @errcode_for_file_access()
  %58 = getelementptr inbounds [1024 x i8], ptr %5, i64 0, i64 0
  %59 = call i32 (ptr, ...) @errmsg(ptr noundef @.str.3, ptr noundef %58)
  call void @errfinish(ptr noundef @.str.4, i32 noundef 220, ptr noundef @__func__.OpenWalSummaryFile)
  br label %60

60:                                               ; preds = %56, %54, %52
  unreachable

61:                                               ; No predecessors!
  br label %62

62:                                               ; preds = %61
  br label %63

63:                                               ; preds = %62, %47, %28
  %64 = load i32, ptr %6, align 4
  call void @llvm.lifetime.end.p0(i64 4, ptr %6) #10
  call void @llvm.lifetime.end.p0(i64 1024, ptr %5) #10
  ret i32 %64
}