; Function Attrs: nounwind uwtable
define dso_local i32 @OpenWalSummaryFile(ptr noundef readonly captures(none) %0, i1 noundef zeroext %1) local_unnamed_addr #0 {
  %3 = alloca [1024 x i8], align 16
  call void @llvm.lifetime.start.p0(i64 1024, ptr nonnull %3) #12
  %4 = getelementptr inbounds nuw i8, ptr %0, i64 16
  %5 = load i32, ptr %4, align 8
  %6 = load i64, ptr %0, align 8
  %7 = lshr i64 %6, 32
  %8 = trunc nuw i64 %7 to i32
  %9 = trunc i64 %6 to i32
  %10 = getelementptr inbounds nuw i8, ptr %0, i64 8
  %11 = load i64, ptr %10, align 8
  %12 = lshr i64 %11, 32
  %13 = trunc nuw i64 %12 to i32
  %14 = trunc i64 %11 to i32
  %15 = call i32 (ptr, i64, ptr, ...) @pg_snprintf(ptr noundef nonnull %3, i64 noundef 1024, ptr noundef nonnull @.str.2, i32 noundef %5, i32 noundef %8, i32 noundef %9, i32 noundef %13, i32 noundef %14) #12
  %16 = call i32 @PathNameOpenFile(ptr noundef nonnull %3, i32 noundef 0) #12
  %17 = icmp slt i32 %16, 0
  br i1 %17, label %18, label %25

18:                                               ; preds = %2
  %19 = tail call ptr @__errno_location() #14
  %20 = load i32, ptr %19, align 4
  %.not = icmp eq i32 %20, 17
  %brmerge.not = and i1 %1, %.not
  br i1 %brmerge.not, label %25, label %21

21:                                               ; preds = %18
  %22 = call zeroext i1 @errstart_cold(i32 noundef 21, ptr noundef null) #15
  call void @llvm.assume(i1 %22)
  %23 = call i32 @errcode_for_file_access() #12
  %24 = call i32 (ptr, ...) @errmsg(ptr noundef nonnull @.str.3, ptr noundef nonnull %3) #12
  call void @errfinish(ptr noundef nonnull @.str.4, i32 noundef 220, ptr noundef nonnull @__func__.OpenWalSummaryFile) #12
  unreachable

25:                                               ; preds = %18, %2
  call void @llvm.lifetime.end.p0(i64 1024, ptr nonnull %3) #12
  ret i32 %16
}